; Function Attrs: mustprogress uwtable
define hidden void @_ZN2cv3dnn10logSoftmaxERNS_3MatERKS1_i(ptr noundef nonnull align 8 dereferenceable(96) %0, ptr noundef nonnull align 8 dereferenceable(96) %1, i32 noundef %2) local_unnamed_addr #3 personality ptr @__gxx_personality_v0 {
  %4 = alloca %"class.cv::_InputArray", align 8
  %5 = alloca %"class.cv::_OutputArray", align 8
  %6 = getelementptr inbounds nuw i8, ptr %1, i64 64
  %7 = load ptr, ptr %6, align 8, !tbaa !43
  %8 = sext i32 %2 to i64
  %9 = getelementptr inbounds i32, ptr %7, i64 %8
  %10 = load i32, ptr %9, align 4, !tbaa !3
  tail call void @_ZN2cv3dnn7softmaxERNS_3MatERKS1_iii(ptr noundef nonnull align 8 dereferenceable(96) %0, ptr noundef nonnull align 8 dereferenceable(96) %1, i32 noundef %2, i32 noundef 0, i32 noundef %10)
  call void @llvm.lifetime.start.p0(i64 24, ptr nonnull %4) #16
  %11 = getelementptr inbounds nuw i8, ptr %4, i64 16
  store i32 0, ptr %11, align 8, !tbaa !44
  %12 = getelementptr inbounds nuw i8, ptr %4, i64 20
  store i32 0, ptr %12, align 4, !tbaa !46
  store i32 16842752, ptr %4, align 8, !tbaa !47
  %13 = getelementptr inbounds nuw i8, ptr %4, i64 8
  store ptr %0, ptr %13, align 8, !tbaa !49
  call void @llvm.lifetime.start.p0(i64 24, ptr nonnull %5) #16
  %14 = getelementptr inbounds nuw i8, ptr %5, i64 8
  %15 = getelementptr inbounds nuw i8, ptr %5, i64 16
  store i64 0, ptr %15, align 8
  store i32 33619968, ptr %5, align 8, !tbaa !47
  store ptr %0, ptr %14, align 8, !tbaa !49
  call void @_ZN2cv3logERKNS_11_InputArrayERKNS_12_OutputArrayE(ptr noundef nonnull align 8 dereferenceable(24) %4, ptr noundef nonnull align 8 dereferenceable(24) %5)
  call void @llvm.lifetime.end.p0(i64 24, ptr nonnull %5) #16
  call void @llvm.lifetime.end.p0(i64 24, ptr nonnull %4) #16
  ret void
}